
High_Pressure_Detection_LearnInDepth_Ayman.elf:     file format elf32-littlearm


Disassembly of section .vectors:

08000000 <vectors>:
 8000000:	00 10 00 20 d1 01 00 08 81 02 00 08 81 02 00 08     ... ............
 8000010:	81 02 00 08 81 02 00 08                             ........

08000018 <Alarm_Set>:
 8000018:	b580      	push	{r7, lr}
 800001a:	af00      	add	r7, sp, #0
 800001c:	f04f 0000 	mov.w	r0, #0
 8000020:	f000 f848 	bl	80000b4 <Set_Alarm_actuator>
 8000024:	bd80      	pop	{r7, pc}
 8000026:	bf00      	nop

08000028 <Alarm_Reset>:
 8000028:	b580      	push	{r7, lr}
 800002a:	af00      	add	r7, sp, #0
 800002c:	f04f 0001 	mov.w	r0, #1
 8000030:	f000 f840 	bl	80000b4 <Set_Alarm_actuator>
 8000034:	bd80      	pop	{r7, pc}
 8000036:	bf00      	nop

08000038 <Alarm_ON>:
 8000038:	b580      	push	{r7, lr}
 800003a:	af00      	add	r7, sp, #0
 800003c:	f7ff ffec 	bl	8000018 <Alarm_Set>
 8000040:	bd80      	pop	{r7, pc}
 8000042:	bf00      	nop

08000044 <Alarm_OFF>:
 8000044:	b580      	push	{r7, lr}
 8000046:	af00      	add	r7, sp, #0
 8000048:	f7ff ffee 	bl	8000028 <Alarm_Reset>
 800004c:	bd80      	pop	{r7, pc}
 800004e:	bf00      	nop

08000050 <High_Pressure_Detected>:
 8000050:	b580      	push	{r7, lr}
 8000052:	af00      	add	r7, sp, #0
 8000054:	f7ff fff0 	bl	8000038 <Alarm_ON>
 8000058:	f244 2040 	movw	r0, #16960	; 0x4240
 800005c:	f2c0 000f 	movt	r0, #15
 8000060:	f000 f80a 	bl	8000078 <Delay>
 8000064:	f7ff ffee 	bl	8000044 <Alarm_OFF>
 8000068:	f244 2040 	movw	r0, #16960	; 0x4240
 800006c:	f2c0 000f 	movt	r0, #15
 8000070:	f000 f802 	bl	8000078 <Delay>
 8000074:	bd80      	pop	{r7, pc}
 8000076:	bf00      	nop

08000078 <Delay>:
 8000078:	b480      	push	{r7}
 800007a:	b083      	sub	sp, #12
 800007c:	af00      	add	r7, sp, #0
 800007e:	6078      	str	r0, [r7, #4]
 8000080:	e003      	b.n	800008a <Delay+0x12>
 8000082:	687b      	ldr	r3, [r7, #4]
 8000084:	f103 33ff 	add.w	r3, r3, #4294967295
 8000088:	607b      	str	r3, [r7, #4]
 800008a:	687b      	ldr	r3, [r7, #4]
 800008c:	2b00      	cmp	r3, #0
 800008e:	d1f8      	bne.n	8000082 <Delay+0xa>
 8000090:	f107 070c 	add.w	r7, r7, #12
 8000094:	46bd      	mov	sp, r7
 8000096:	bc80      	pop	{r7}
 8000098:	4770      	bx	lr
 800009a:	bf00      	nop

0800009c <getPressureVal>:
 800009c:	b480      	push	{r7}
 800009e:	af00      	add	r7, sp, #0
 80000a0:	f640 0308 	movw	r3, #2056	; 0x808
 80000a4:	f2c4 0301 	movt	r3, #16385	; 0x4001
 80000a8:	681b      	ldr	r3, [r3, #0]
 80000aa:	b2db      	uxtb	r3, r3
 80000ac:	4618      	mov	r0, r3
 80000ae:	46bd      	mov	sp, r7
 80000b0:	bc80      	pop	{r7}
 80000b2:	4770      	bx	lr

080000b4 <Set_Alarm_actuator>:
 80000b4:	b480      	push	{r7}
 80000b6:	b083      	sub	sp, #12
 80000b8:	af00      	add	r7, sp, #0
 80000ba:	6078      	str	r0, [r7, #4]
 80000bc:	687b      	ldr	r3, [r7, #4]
 80000be:	2b01      	cmp	r3, #1
 80000c0:	d10c      	bne.n	80000dc <Set_Alarm_actuator+0x28>
 80000c2:	f640 030c 	movw	r3, #2060	; 0x80c
 80000c6:	f2c4 0301 	movt	r3, #16385	; 0x4001
 80000ca:	f640 020c 	movw	r2, #2060	; 0x80c
 80000ce:	f2c4 0201 	movt	r2, #16385	; 0x4001
 80000d2:	6812      	ldr	r2, [r2, #0]
 80000d4:	f442 5200 	orr.w	r2, r2, #8192	; 0x2000
 80000d8:	601a      	str	r2, [r3, #0]
 80000da:	e00e      	b.n	80000fa <Set_Alarm_actuator+0x46>
 80000dc:	687b      	ldr	r3, [r7, #4]
 80000de:	2b00      	cmp	r3, #0
 80000e0:	d10b      	bne.n	80000fa <Set_Alarm_actuator+0x46>
 80000e2:	f640 030c 	movw	r3, #2060	; 0x80c
 80000e6:	f2c4 0301 	movt	r3, #16385	; 0x4001
 80000ea:	f640 020c 	movw	r2, #2060	; 0x80c
 80000ee:	f2c4 0201 	movt	r2, #16385	; 0x4001
 80000f2:	6812      	ldr	r2, [r2, #0]
 80000f4:	f422 5200 	bic.w	r2, r2, #8192	; 0x2000
 80000f8:	601a      	str	r2, [r3, #0]
 80000fa:	f107 070c 	add.w	r7, r7, #12
 80000fe:	46bd      	mov	sp, r7
 8000100:	bc80      	pop	{r7}
 8000102:	4770      	bx	lr

08000104 <GPIO_INITIALIZATION>:
 8000104:	b480      	push	{r7}
 8000106:	af00      	add	r7, sp, #0
 8000108:	f241 0318 	movw	r3, #4120	; 0x1018
 800010c:	f2c4 0302 	movt	r3, #16386	; 0x4002
 8000110:	f241 0218 	movw	r2, #4120	; 0x1018
 8000114:	f2c4 0202 	movt	r2, #16386	; 0x4002
 8000118:	6812      	ldr	r2, [r2, #0]
 800011a:	f042 0204 	orr.w	r2, r2, #4
 800011e:	601a      	str	r2, [r3, #0]
 8000120:	f44f 6300 	mov.w	r3, #2048	; 0x800
 8000124:	f2c4 0301 	movt	r3, #16385	; 0x4001
 8000128:	f44f 6200 	mov.w	r2, #2048	; 0x800
 800012c:	f2c4 0201 	movt	r2, #16385	; 0x4001
 8000130:	6812      	ldr	r2, [r2, #0]
 8000132:	f422 0270 	bic.w	r2, r2, #15728640	; 0xf00000
 8000136:	601a      	str	r2, [r3, #0]
 8000138:	f44f 6300 	mov.w	r3, #2048	; 0x800
 800013c:	f2c4 0301 	movt	r3, #16385	; 0x4001
 8000140:	f44f 6200 	mov.w	r2, #2048	; 0x800
 8000144:	f2c4 0201 	movt	r2, #16385	; 0x4001
 8000148:	6812      	ldr	r2, [r2, #0]
 800014a:	601a      	str	r2, [r3, #0]
 800014c:	f640 0304 	movw	r3, #2052	; 0x804
 8000150:	f2c4 0301 	movt	r3, #16385	; 0x4001
 8000154:	f640 0204 	movw	r2, #2052	; 0x804
 8000158:	f2c4 0201 	movt	r2, #16385	; 0x4001
 800015c:	6812      	ldr	r2, [r2, #0]
 800015e:	f422 0270 	bic.w	r2, r2, #15728640	; 0xf00000
 8000162:	601a      	str	r2, [r3, #0]
 8000164:	f640 0304 	movw	r3, #2052	; 0x804
 8000168:	f2c4 0301 	movt	r3, #16385	; 0x4001
 800016c:	f640 0204 	movw	r2, #2052	; 0x804
 8000170:	f2c4 0201 	movt	r2, #16385	; 0x4001
 8000174:	6812      	ldr	r2, [r2, #0]
 8000176:	f042 3222 	orr.w	r2, r2, #572662306	; 0x22222222
 800017a:	601a      	str	r2, [r3, #0]
 800017c:	46bd      	mov	sp, r7
 800017e:	bc80      	pop	{r7}
 8000180:	4770      	bx	lr
 8000182:	bf00      	nop

08000184 <Get_Pressure_Value>:
 8000184:	b580      	push	{r7, lr}
 8000186:	af00      	add	r7, sp, #0
 8000188:	f7ff ff88 	bl	800009c <getPressureVal>
 800018c:	4603      	mov	r3, r0
 800018e:	4618      	mov	r0, r3
 8000190:	bd80      	pop	{r7, pc}
 8000192:	bf00      	nop

08000194 <main>:
 8000194:	b580      	push	{r7, lr}
 8000196:	b084      	sub	sp, #16
 8000198:	af00      	add	r7, sp, #0
 800019a:	f7ff ffb3 	bl	8000104 <GPIO_INITIALIZATION>
 800019e:	f240 238c 	movw	r3, #652	; 0x28c
 80001a2:	f6c0 0300 	movt	r3, #2048	; 0x800
 80001a6:	f107 0204 	add.w	r2, r7, #4
 80001aa:	e893 0003 	ldmia.w	r3, {r0, r1}
 80001ae:	e882 0003 	stmia.w	r2, {r0, r1}
 80001b2:	687b      	ldr	r3, [r7, #4]
 80001b4:	60fb      	str	r3, [r7, #12]
 80001b6:	68fb      	ldr	r3, [r7, #12]
 80001b8:	2b13      	cmp	r3, #19
 80001ba:	d904      	bls.n	80001c6 <main+0x32>
 80001bc:	f7ff ff48 	bl	8000050 <High_Pressure_Detected>
 80001c0:	687b      	ldr	r3, [r7, #4]
 80001c2:	60fb      	str	r3, [r7, #12]
 80001c4:	e7f7      	b.n	80001b6 <main+0x22>
 80001c6:	f7ff ff2f 	bl	8000028 <Alarm_Reset>
 80001ca:	68bb      	ldr	r3, [r7, #8]
 80001cc:	60fb      	str	r3, [r7, #12]
 80001ce:	e7f2      	b.n	80001b6 <main+0x22>

080001d0 <Reset_Handler>:
 80001d0:	b580      	push	{r7, lr}
 80001d2:	b086      	sub	sp, #24
 80001d4:	af00      	add	r7, sp, #0
 80001d6:	f240 0200 	movw	r2, #0
 80001da:	f2c2 0200 	movt	r2, #8192	; 0x2000
 80001de:	f240 0300 	movw	r3, #0
 80001e2:	f2c2 0300 	movt	r3, #8192	; 0x2000
 80001e6:	1ad3      	subs	r3, r2, r3
 80001e8:	60bb      	str	r3, [r7, #8]
 80001ea:	f240 238c 	movw	r3, #652	; 0x28c
 80001ee:	f6c0 0300 	movt	r3, #2048	; 0x800
 80001f2:	617b      	str	r3, [r7, #20]
 80001f4:	f240 0300 	movw	r3, #0
 80001f8:	f2c2 0300 	movt	r3, #8192	; 0x2000
 80001fc:	613b      	str	r3, [r7, #16]
 80001fe:	f04f 0300 	mov.w	r3, #0
 8000202:	60fb      	str	r3, [r7, #12]
 8000204:	e00f      	b.n	8000226 <Reset_Handler+0x56>
 8000206:	697b      	ldr	r3, [r7, #20]
 8000208:	781a      	ldrb	r2, [r3, #0]
 800020a:	693b      	ldr	r3, [r7, #16]
 800020c:	701a      	strb	r2, [r3, #0]
 800020e:	693b      	ldr	r3, [r7, #16]
 8000210:	f103 0301 	add.w	r3, r3, #1
 8000214:	613b      	str	r3, [r7, #16]
 8000216:	697b      	ldr	r3, [r7, #20]
 8000218:	f103 0301 	add.w	r3, r3, #1
 800021c:	617b      	str	r3, [r7, #20]
 800021e:	68fb      	ldr	r3, [r7, #12]
 8000220:	f103 0301 	add.w	r3, r3, #1
 8000224:	60fb      	str	r3, [r7, #12]
 8000226:	68fa      	ldr	r2, [r7, #12]
 8000228:	68bb      	ldr	r3, [r7, #8]
 800022a:	429a      	cmp	r2, r3
 800022c:	d3eb      	bcc.n	8000206 <Reset_Handler+0x36>
 800022e:	f240 0200 	movw	r2, #0
 8000232:	f2c2 0200 	movt	r2, #8192	; 0x2000
 8000236:	f240 0300 	movw	r3, #0
 800023a:	f2c2 0300 	movt	r3, #8192	; 0x2000
 800023e:	1ad3      	subs	r3, r2, r3
 8000240:	607b      	str	r3, [r7, #4]
 8000242:	f240 0300 	movw	r3, #0
 8000246:	f2c2 0300 	movt	r3, #8192	; 0x2000
 800024a:	613b      	str	r3, [r7, #16]
 800024c:	f04f 0300 	mov.w	r3, #0
 8000250:	60fb      	str	r3, [r7, #12]
 8000252:	e00b      	b.n	800026c <Reset_Handler+0x9c>
 8000254:	693b      	ldr	r3, [r7, #16]
 8000256:	f04f 0200 	mov.w	r2, #0
 800025a:	701a      	strb	r2, [r3, #0]
 800025c:	693b      	ldr	r3, [r7, #16]
 800025e:	f103 0301 	add.w	r3, r3, #1
 8000262:	613b      	str	r3, [r7, #16]
 8000264:	68fb      	ldr	r3, [r7, #12]
 8000266:	f103 0301 	add.w	r3, r3, #1
 800026a:	60fb      	str	r3, [r7, #12]
 800026c:	68fa      	ldr	r2, [r7, #12]
 800026e:	687b      	ldr	r3, [r7, #4]
 8000270:	429a      	cmp	r2, r3
 8000272:	d3ef      	bcc.n	8000254 <Reset_Handler+0x84>
 8000274:	f7ff ff8e 	bl	8000194 <main>
 8000278:	f107 0718 	add.w	r7, r7, #24
 800027c:	46bd      	mov	sp, r7
 800027e:	bd80      	pop	{r7, pc}

08000280 <Default_Handler>:
 8000280:	b580      	push	{r7, lr}
 8000282:	af00      	add	r7, sp, #0
 8000284:	f7ff ffa4 	bl	80001d0 <Reset_Handler>
 8000288:	bd80      	pop	{r7, pc}
 800028a:	bf00      	nop
